target datalayout = "e-m:e-p270:32:32-p271:32:32-p272:64:64-i64:64-i128:128-f80:128-n8:16:32:64-S128"
target triple = "x86_64-pc-linux-gnu"

; Function Attrs: mustprogress nounwind uwtable
define noundef i32 @_ZN6icu_7710GreekUpper16getDiacriticDataEi(i32 noundef %0) #5 {
  %2 = alloca i32, align 4
  %3 = alloca i32, align 4
  store i32 %0, ptr %3, align 4, !tbaa !3
  %4 = load i32, ptr %3, align 4, !tbaa !3
  switch i32 %4, label %10 [
    i32 768, label %5
    i32 769, label %5
    i32 834, label %5
    i32 770, label %5
    i32 771, label %5
    i32 785, label %5
    i32 776, label %6
    i32 836, label %7
    i32 837, label %8
    i32 772, label %9
    i32 774, label %9
    i32 787, label %9
    i32 788, label %9
    i32 835, label %9
  ]

5:                                                ; preds = %1, %1, %1, %1, %1, %1
  store i32 16384, ptr %2, align 4
  br label %11

6:                                                ; preds = %1
  store i32 65536, ptr %2, align 4
  br label %11

7:                                                ; preds = %1
  store i32 81920, ptr %2, align 4
  br label %11

8:                                                ; preds = %1
  store i32 8192, ptr %2, align 4
  br label %11

9:                                                ; preds = %1, %1, %1, %1, %1
  store i32 131072, ptr %2, align 4
  br label %11

10:                                               ; preds = %1
  store i32 0, ptr %2, align 4
  br label %11

11:                                               ; preds = %10, %9, %8, %7, %6, %5
  %12 = load i32, ptr %2, align 4
  ret i32 %12
}