; Function Attrs: mustprogress nofree norecurse nosync nounwind willreturn memory(none) uwtable
define noundef range(i32 0, 131073) i32 @_ZN6icu_7710GreekUpper16getDiacriticDataEi(i32 noundef %0) local_unnamed_addr #6 {
  switch i32 %0, label %6 [
    i32 768, label %7
    i32 769, label %7
    i32 834, label %7
    i32 770, label %7
    i32 771, label %7
    i32 785, label %7
    i32 776, label %2
    i32 836, label %3
    i32 837, label %4
    i32 772, label %5
    i32 774, label %5
    i32 787, label %5
    i32 788, label %5
    i32 835, label %5
  ]

2:                                                ; preds = %1
  br label %7

3:                                                ; preds = %1
  br label %7

4:                                                ; preds = %1
  br label %7

5:                                                ; preds = %1, %1, %1, %1, %1
  br label %7

6:                                                ; preds = %1
  br label %7

7:                                                ; preds = %1, %1, %1, %1, %1, %1, %6, %5, %4, %3, %2
  %.0 = phi i32 [ 0, %6 ], [ 131072, %5 ], [ 8192, %4 ], [ 81920, %3 ], [ 65536, %2 ], [ 16384, %1 ], [ 16384, %1 ], [ 16384, %1 ], [ 16384, %1 ], [ 16384, %1 ], [ 16384, %1 ]
  ret i32 %.0
}